ARM GAS  C:\Users\Zachary\AppData\Local\Temp\cc1H39bY.s 			page 1


   1              		.cpu cortex-m0
   2              		.fpu softvfp
   3              		.eabi_attribute 20, 1
   4              		.eabi_attribute 21, 1
   5              		.eabi_attribute 23, 3
   6              		.eabi_attribute 24, 1
   7              		.eabi_attribute 25, 1
   8              		.eabi_attribute 26, 1
   9              		.eabi_attribute 30, 6
  10              		.eabi_attribute 34, 0
  11              		.eabi_attribute 18, 4
  12              		.code	16
  13              		.file	"main.c"
  14              		.text
  15              	.Ltext0:
  16              		.cfi_sections	.debug_frame
  17              		.section	.text.main,"ax",%progbits
  18              		.align	2
  19              		.global	main
  20              		.code	16
  21              		.thumb_func
  22              		.type	main, %function
  23              	main:
  24              	.LFB35:
  25              		.file 1 ".\\main.c"
   1:.\main.c      **** /*****************************************************************************
   2:.\main.c      **** * File Name: main.c
   3:.\main.c      **** *
   4:.\main.c      **** * Version: 1.0
   5:.\main.c      **** *
   6:.\main.c      **** * Description:
   7:.\main.c      **** * This is the top level application for the PSoC 4 BLE Lab 4.
   8:.\main.c      **** *
   9:.\main.c      **** * Hardware Dependency:
  10:.\main.c      **** * CY8CKIT-042 BLE Pioneer Kit
  11:.\main.c      **** *
  12:.\main.c      **** ******************************************************************************
  13:.\main.c      **** * Copyright (2014), Cypress Semiconductor Corporation.
  14:.\main.c      **** ******************************************************************************
  15:.\main.c      **** * This software is owned by Cypress Semiconductor Corporation (Cypress) and is
  16:.\main.c      **** * protected by and subject to worldwide patent protection (United States and
  17:.\main.c      **** * foreign), United States copyright laws and international treaty provisions.
  18:.\main.c      **** * Cypress hereby grants to licensee a personal, non-exclusive, non-transferable
  19:.\main.c      **** * license to copy, use, modify, create derivative works of, and compile the
  20:.\main.c      **** * Cypress Source Code and derivative works for the sole purpose of creating
  21:.\main.c      **** * custom software in support of licensee product to be used only in conjunction
  22:.\main.c      **** * with a Cypress integrated circuit as specified in the applicable agreement.
  23:.\main.c      **** * Any reproduction, modification, translation, compilation, or representation of
  24:.\main.c      **** * this software except as specified above is prohibited without the express
  25:.\main.c      **** * written permission of Cypress.
  26:.\main.c      **** *
  27:.\main.c      **** * Disclaimer: CYPRESS MAKES NO WARRANTY OF ANY KIND, EXPRESS OR IMPLIED, WITH
  28:.\main.c      **** * REGARD TO THIS MATERIAL, INCLUDING, BUT NOT LIMITED TO, THE IMPLIED
  29:.\main.c      **** * WARRANTIES OF MERCHANTABILITY AND FITNESS FOR A PARTICULAR PURPOSE.
  30:.\main.c      **** * Cypress reserves the right to make changes without further notice to the
  31:.\main.c      **** * materials described herein. Cypress does not assume any liability arising out
  32:.\main.c      **** * of the application or use of any product or circuit described herein. Cypress
ARM GAS  C:\Users\Zachary\AppData\Local\Temp\cc1H39bY.s 			page 2


  33:.\main.c      **** * does not authorize its products for use as critical components in life-support
  34:.\main.c      **** * systems where a malfunction or failure may reasonably be expected to result in
  35:.\main.c      **** * significant injury to the user. The inclusion of Cypress' product in a life-
  36:.\main.c      **** * support systems application implies that the manufacturer assumes all risk of
  37:.\main.c      **** * such use and in doing so indemnifies Cypress against all charges. Use may be
  38:.\main.c      **** * limited by and subject to the applicable Cypress software license agreement.
  39:.\main.c      **** *****************************************************************************/
  40:.\main.c      **** 
  41:.\main.c      **** 
  42:.\main.c      **** /*****************************************************************************
  43:.\main.c      **** * Included headers
  44:.\main.c      **** *****************************************************************************/
  45:.\main.c      **** #include <main.h>
  46:.\main.c      **** #include <BLEApplications.h>
  47:.\main.c      **** 
  48:.\main.c      **** 
  49:.\main.c      **** /*****************************************************************************
  50:.\main.c      **** * Function Prototypes
  51:.\main.c      **** *****************************************************************************/
  52:.\main.c      **** static void InitializeSystem(void);
  53:.\main.c      **** static void HandleCapSenseSlider(void);
  54:.\main.c      **** 
  55:.\main.c      **** 
  56:.\main.c      **** /*****************************************************************************
  57:.\main.c      **** * Public functions
  58:.\main.c      **** *****************************************************************************/
  59:.\main.c      **** 
  60:.\main.c      **** /*******************************************************************************
  61:.\main.c      **** * Function Name: main
  62:.\main.c      **** ********************************************************************************
  63:.\main.c      **** * Summary:
  64:.\main.c      **** * System entrance point. This calls the initializing function and continuously
  65:.\main.c      **** * process BLE and CapSense events.
  66:.\main.c      **** *
  67:.\main.c      **** * Parameters:
  68:.\main.c      **** *  void
  69:.\main.c      **** *
  70:.\main.c      **** * Return:
  71:.\main.c      **** *  int
  72:.\main.c      **** *
  73:.\main.c      **** *******************************************************************************/
  74:.\main.c      **** int main()
  75:.\main.c      **** {
  26              		.loc 1 75 0
  27              		.cfi_startproc
  28 0000 80B5     		push	{r7, lr}
  29              		.cfi_def_cfa_offset 8
  30              		.cfi_offset 7, -8
  31              		.cfi_offset 14, -4
  32 0002 00AF     		add	r7, sp, #0
  33              		.cfi_def_cfa_register 7
  76:.\main.c      **** 	/* This function will initialize the system resources such as BLE and CapSense */
  77:.\main.c      ****     InitializeSystem();
  34              		.loc 1 77 0
  35 0004 FFF7FEFF 		bl	InitializeSystem
  78:.\main.c      ****     
  79:.\main.c      ****     CapSense_EnableWidget(CapSense_Sns_ProximitySensor0_0__PROX);
ARM GAS  C:\Users\Zachary\AppData\Local\Temp\cc1H39bY.s 			page 3


  36              		.loc 1 79 0
  37 0008 094B     		ldr	r3, .L4
  38 000a 181C     		mov	r0, r3
  39 000c FFF7FEFF 		bl	CapSense_EnableWidget
  40              	.L3:
  80:.\main.c      **** 	
  81:.\main.c      ****     for(;;)
  82:.\main.c      ****     {
  83:.\main.c      ****         /*Process event callback to handle BLE events. The events generated and 
  84:.\main.c      **** 		* used for this application are inside the 'CustomEventHandler' routine*/
  85:.\main.c      ****         CyBle_ProcessEvents();
  41              		.loc 1 85 0
  42 0010 FFF7FEFF 		bl	CyBle_ProcessEvents
  86:.\main.c      **** 		
  87:.\main.c      **** 		if(TRUE == deviceConnected)
  43              		.loc 1 87 0
  44 0014 074B     		ldr	r3, .L4+4
  45 0016 1B78     		ldrb	r3, [r3]
  46 0018 012B     		cmp	r3, #1
  47 001a 08D1     		bne	.L2
  88:.\main.c      **** 		{
  89:.\main.c      ****             /* When the Client Characteristic Configuration descriptor (CCCD) is
  90:.\main.c      ****              * written by Central device for enabling/disabling notifications, 
  91:.\main.c      ****              * then the same descriptor value has to be explicitly updated in 
  92:.\main.c      ****              * application so that it reflects the correct value when the 
  93:.\main.c      ****              * descriptor is read */
  94:.\main.c      **** 			UpdateNotificationCCCD();
  48              		.loc 1 94 0
  49 001c FFF7FEFF 		bl	UpdateNotificationCCCD
  95:.\main.c      **** 			
  96:.\main.c      **** 			/* Send CapSense Slider data when respective notification is enabled */
  97:.\main.c      **** 			if(TRUE == sendCapSenseSliderNotifications)
  50              		.loc 1 97 0
  51 0020 054B     		ldr	r3, .L4+8
  52 0022 1B78     		ldrb	r3, [r3]
  53 0024 012B     		cmp	r3, #1
  54 0026 02D1     		bne	.L2
  98:.\main.c      **** 			{
  99:.\main.c      **** 				/* Check for CapSense slider swipe and send data accordingly */
 100:.\main.c      **** 				HandleCapSenseSlider();
  55              		.loc 1 100 0
  56 0028 FFF7FEFF 		bl	HandleCapSenseSlider
 101:.\main.c      **** 			}
 102:.\main.c      **** 		}
 103:.\main.c      ****     }	
  57              		.loc 1 103 0
  58 002c F0E7     		b	.L3
  59              	.L2:
  60 002e EFE7     		b	.L3
  61              	.L5:
  62              		.align	2
  63              	.L4:
  64 0030 08020440 		.word	1074004488
  65 0034 00000000 		.word	deviceConnected
  66 0038 00000000 		.word	sendCapSenseSliderNotifications
  67              		.cfi_endproc
  68              	.LFE35:
ARM GAS  C:\Users\Zachary\AppData\Local\Temp\cc1H39bY.s 			page 4


  69              		.size	main, .-main
  70              		.section	.text.InitializeSystem,"ax",%progbits
  71              		.align	2
  72              		.code	16
  73              		.thumb_func
  74              		.type	InitializeSystem, %function
  75              	InitializeSystem:
  76              	.LFB36:
 104:.\main.c      **** }
 105:.\main.c      **** 
 106:.\main.c      **** 
 107:.\main.c      **** /*******************************************************************************
 108:.\main.c      **** * Function Name: InitializeSystem
 109:.\main.c      **** ********************************************************************************
 110:.\main.c      **** * Summary:
 111:.\main.c      **** * Start the components and initialize system.
 112:.\main.c      **** *
 113:.\main.c      **** * Parameters:
 114:.\main.c      **** *  void
 115:.\main.c      **** *
 116:.\main.c      **** * Return:
 117:.\main.c      **** *  void
 118:.\main.c      **** *
 119:.\main.c      **** *******************************************************************************/
 120:.\main.c      **** void InitializeSystem(void)
 121:.\main.c      **** {
  77              		.loc 1 121 0
  78              		.cfi_startproc
  79 0000 80B5     		push	{r7, lr}
  80              		.cfi_def_cfa_offset 8
  81              		.cfi_offset 7, -8
  82              		.cfi_offset 14, -4
  83 0002 00AF     		add	r7, sp, #0
  84              		.cfi_def_cfa_register 7
 122:.\main.c      **** 	/* Enable global interrupt mask */
 123:.\main.c      **** 	CyGlobalIntEnable; 
  85              		.loc 1 123 0
  86              	@ 123 ".\main.c" 1
  87 0004 62B6     		CPSIE   i
  88              	@ 0 "" 2
 124:.\main.c      **** 		
 125:.\main.c      **** 	/* Start BLE component and register the CustomEventHandler function. This 
 126:.\main.c      **** 	 * function exposes the events from BLE component for application use */
 127:.\main.c      ****     CyBle_Start(CustomEventHandler);	
  89              		.loc 1 127 0
  90              		.code	16
  91 0006 104B     		ldr	r3, .L7
  92 0008 181C     		mov	r0, r3
  93 000a FFF7FEFF 		bl	CyBle_Start
 128:.\main.c      ****     
 129:.\main.c      **** 	/* Start both the PrISM components for LED control*/
 130:.\main.c      ****     PRS_1_Start();
  94              		.loc 1 130 0
  95 000e FFF7FEFF 		bl	PRS_1_Start
 131:.\main.c      ****     PRS_2_Start();
  96              		.loc 1 131 0
  97 0012 FFF7FEFF 		bl	PRS_2_Start
ARM GAS  C:\Users\Zachary\AppData\Local\Temp\cc1H39bY.s 			page 5


 132:.\main.c      **** 	
 133:.\main.c      **** 	/* The RGB LED on BLE Pioneer kit are active low. Drive HIGH on 
 134:.\main.c      **** 	 * pin for OFF and drive LOW on pin for ON*/
 135:.\main.c      **** 	PRS_1_WritePulse0(RGB_LED_OFF);
  98              		.loc 1 135 0
  99 0016 FF20     		mov	r0, #255
 100 0018 FFF7FEFF 		bl	PRS_1_WritePulse0
 136:.\main.c      **** 	PRS_1_WritePulse1(RGB_LED_OFF);
 101              		.loc 1 136 0
 102 001c FF20     		mov	r0, #255
 103 001e FFF7FEFF 		bl	PRS_1_WritePulse1
 137:.\main.c      **** 	PRS_2_WritePulse0(RGB_LED_OFF);
 104              		.loc 1 137 0
 105 0022 FF20     		mov	r0, #255
 106 0024 FFF7FEFF 		bl	PRS_2_WritePulse0
 138:.\main.c      **** 	
 139:.\main.c      **** 	/* Set Drive mode of output pins from HiZ to Strong */
 140:.\main.c      **** 	RED_SetDriveMode(RED_DM_STRONG);
 107              		.loc 1 140 0
 108 0028 0620     		mov	r0, #6
 109 002a FFF7FEFF 		bl	RED_SetDriveMode
 141:.\main.c      **** 	GREEN_SetDriveMode(GREEN_DM_STRONG);
 110              		.loc 1 141 0
 111 002e 0620     		mov	r0, #6
 112 0030 FFF7FEFF 		bl	GREEN_SetDriveMode
 142:.\main.c      **** 	BLUE_SetDriveMode(BLUE_DM_STRONG);
 113              		.loc 1 142 0
 114 0034 0620     		mov	r0, #6
 115 0036 FFF7FEFF 		bl	BLUE_SetDriveMode
 143:.\main.c      **** 	
 144:.\main.c      **** 	/* Initialize CapSense component and initialize baselines*/
 145:.\main.c      **** 	CapSense_Start();
 116              		.loc 1 145 0
 117 003a FFF7FEFF 		bl	CapSense_Start
 146:.\main.c      **** 	CapSense_InitializeAllBaselines();
 118              		.loc 1 146 0
 119 003e FFF7FEFF 		bl	CapSense_InitializeAllBaselines
 147:.\main.c      **** }
 120              		.loc 1 147 0
 121 0042 BD46     		mov	sp, r7
 122              		@ sp needed
 123 0044 80BD     		pop	{r7, pc}
 124              	.L8:
 125 0046 C046     		.align	2
 126              	.L7:
 127 0048 00000000 		.word	CustomEventHandler
 128              		.cfi_endproc
 129              	.LFE36:
 130              		.size	InitializeSystem, .-InitializeSystem
 131              		.section	.text.HandleCapSenseSlider,"ax",%progbits
 132              		.align	2
 133              		.code	16
 134              		.thumb_func
 135              		.type	HandleCapSenseSlider, %function
 136              	HandleCapSenseSlider:
 137              	.LFB37:
 148:.\main.c      **** 
ARM GAS  C:\Users\Zachary\AppData\Local\Temp\cc1H39bY.s 			page 6


 149:.\main.c      **** 
 150:.\main.c      **** /*******************************************************************************
 151:.\main.c      **** * Function Name: HandleCapSenseSlider
 152:.\main.c      **** ********************************************************************************
 153:.\main.c      **** * Summary:
 154:.\main.c      **** * This function scans for finger position on CapSense slider, and if the  
 155:.\main.c      **** * position is different, triggers separate routine for BLE notification.
 156:.\main.c      **** *
 157:.\main.c      **** * Parameters:
 158:.\main.c      **** *  void
 159:.\main.c      **** *
 160:.\main.c      **** * Return:
 161:.\main.c      **** *  void
 162:.\main.c      **** *
 163:.\main.c      **** *******************************************************************************/
 164:.\main.c      **** void HandleCapSenseSlider(void)
 165:.\main.c      **** {
 138              		.loc 1 165 0
 139              		.cfi_startproc
 140 0000 80B5     		push	{r7, lr}
 141              		.cfi_def_cfa_offset 8
 142              		.cfi_offset 7, -8
 143              		.cfi_offset 14, -4
 144 0002 82B0     		sub	sp, sp, #8
 145              		.cfi_def_cfa_offset 16
 146 0004 00AF     		add	r7, sp, #0
 147              		.cfi_def_cfa_register 7
 166:.\main.c      **** 	/* Last read CapSense slider position value */
 167:.\main.c      **** 	static uint16 lastPosition;	
 168:.\main.c      **** 	
 169:.\main.c      **** 	/* Present slider position read by CapSense */
 170:.\main.c      **** 	uint16 sliderPosition;
 171:.\main.c      **** 		
 172:.\main.c      **** 	/* Update CapSense baseline for next reading*/
 173:.\main.c      **** 	CapSense_UpdateEnabledBaselines();	
 148              		.loc 1 173 0
 149 0006 FFF7FEFF 		bl	CapSense_UpdateEnabledBaselines
 174:.\main.c      **** 		
 175:.\main.c      **** 	/* Scan the slider widget */
 176:.\main.c      **** 	CapSense_ScanEnabledWidgets();			
 150              		.loc 1 176 0
 151 000a FFF7FEFF 		bl	CapSense_ScanEnabledWidgets
 177:.\main.c      **** 	
 178:.\main.c      **** 	/* Wait for CapSense scanning to be complete. This could take about 5 ms */
 179:.\main.c      **** 	while(CapSense_IsBusy());
 152              		.loc 1 179 0
 153 000e C046     		mov	r8, r8
 154              	.L10:
 155              		.loc 1 179 0 is_stmt 0 discriminator 1
 156 0010 FFF7FEFF 		bl	CapSense_IsBusy
 157 0014 031C     		mov	r3, r0
 158 0016 002B     		cmp	r3, #0
 159 0018 FAD1     		bne	.L10
 180:.\main.c      **** 	
 181:.\main.c      **** 	/* Read the finger position on the slider */
 182:.\main.c      **** 	sliderPosition = CapSense_GetDiffCountData(CapSense_PROXIMITYSENSOR0__PROX);	
 160              		.loc 1 182 0 is_stmt 1
ARM GAS  C:\Users\Zachary\AppData\Local\Temp\cc1H39bY.s 			page 7


 161 001a 0020     		mov	r0, #0
 162 001c FFF7FEFF 		bl	CapSense_GetDiffCountData
 163 0020 031C     		mov	r3, r0
 164 0022 1A1C     		mov	r2, r3
 165 0024 BB1D     		add	r3, r7, #6
 166 0026 1A80     		strh	r2, [r3]
 183:.\main.c      **** 
 184:.\main.c      **** 	/*If finger is detected on the slider*/
 185:.\main.c      **** 	if((sliderPosition != NO_FINGER) && (sliderPosition <= SLIDER_MAX_VALUE))
 167              		.loc 1 185 0
 168 0028 BB1D     		add	r3, r7, #6
 169 002a 1A88     		ldrh	r2, [r3]
 170 002c 0C4B     		ldr	r3, .L12
 171 002e 9A42     		cmp	r2, r3
 172 0030 13D0     		beq	.L9
 173              		.loc 1 185 0 is_stmt 0 discriminator 1
 174 0032 BB1D     		add	r3, r7, #6
 175 0034 1B88     		ldrh	r3, [r3]
 176 0036 642B     		cmp	r3, #100
 177 0038 0FD8     		bhi	.L9
 186:.\main.c      **** 	{
 187:.\main.c      ****         /* If finger position on the slider is changed then send data as BLE 
 188:.\main.c      ****          * notifications */
 189:.\main.c      ****         if(sliderPosition != lastPosition)
 178              		.loc 1 189 0 is_stmt 1
 179 003a 0A4B     		ldr	r3, .L12+4
 180 003c 1B88     		ldrh	r3, [r3]
 181 003e BA1D     		add	r2, r7, #6
 182 0040 1288     		ldrh	r2, [r2]
 183 0042 9A42     		cmp	r2, r3
 184 0044 09D0     		beq	.L9
 190:.\main.c      **** 		{
 191:.\main.c      **** 			/* Update global variable with present finger position on slider*/
 192:.\main.c      **** 			lastPosition = sliderPosition;
 185              		.loc 1 192 0
 186 0046 074B     		ldr	r3, .L12+4
 187 0048 BA1D     		add	r2, r7, #6
 188 004a 1288     		ldrh	r2, [r2]
 189 004c 1A80     		strh	r2, [r3]
 193:.\main.c      **** 
 194:.\main.c      **** 			SendCapSenseNotification((uint8)sliderPosition);
 190              		.loc 1 194 0
 191 004e BB1D     		add	r3, r7, #6
 192 0050 1B88     		ldrh	r3, [r3]
 193 0052 DBB2     		uxtb	r3, r3
 194 0054 181C     		mov	r0, r3
 195 0056 FFF7FEFF 		bl	SendCapSenseNotification
 196              	.L9:
 195:.\main.c      **** 
 196:.\main.c      **** 		}	
 197:.\main.c      **** 	}	
 198:.\main.c      **** }
 197              		.loc 1 198 0
 198 005a BD46     		mov	sp, r7
 199 005c 02B0     		add	sp, sp, #8
 200              		@ sp needed
 201 005e 80BD     		pop	{r7, pc}
ARM GAS  C:\Users\Zachary\AppData\Local\Temp\cc1H39bY.s 			page 8


 202              	.L13:
 203              		.align	2
 204              	.L12:
 205 0060 FFFF0000 		.word	65535
 206 0064 00000000 		.word	lastPosition.6715
 207              		.cfi_endproc
 208              	.LFE37:
 209              		.size	HandleCapSenseSlider, .-HandleCapSenseSlider
 210              		.bss
 211              		.align	1
 212              	lastPosition.6715:
 213 0000 0000     		.space	2
 214              		.text
 215              	.Letext0:
 216              		.file 2 ".\\Generated_Source\\PSoC4/cytypes.h"
 217              		.file 3 "./BLEApplications.h"